---
triple:          'arm64-apple-darwin'
binary-path:     '/Users/sabine/projects/keyman/keyman/mac/mcompile/mcompile.exe'
relocations:
  - { offsetInCU: 0x6B99, offset: 0x6B99, size: 0x8, addend: 0x0, symName: __ZNSt3__16copy_nB8ue170006IPKDsmPDsEENS_9enable_ifIXsr37__has_random_access_iterator_categoryIT_EE5valueET1_E4typeES5_T0_S6_, symObjAddr: 0x3E00, symBinAddr: 0x100005C64, symSize: 0x44 }
  - { offsetInCU: 0x6C40, offset: 0x6C40, size: 0x8, addend: 0x0, symName: __ZNSt3__124__put_character_sequenceB8ue170006IcNS_11char_traitsIcEEEERNS_13basic_ostreamIT_T0_EES7_PKS4_m, symObjAddr: 0x4A4C, symBinAddr: 0x1000068B0, symSize: 0x1F4 }
  - { offsetInCU: 0x89A8, offset: 0x89A8, size: 0x8, addend: 0x0, symName: __ZNSt3__1lsB8ue170006INS_11char_traitsIcEEEERNS_13basic_ostreamIcT_EES6_PKc, symObjAddr: 0x710, symBinAddr: 0x100002574, symSize: 0x48 }
  - { offsetInCU: 0x89EE, offset: 0x89EE, size: 0x8, addend: 0x0, symName: __ZNSt3__130__libcpp_is_constant_evaluatedB8ue170006Ev, symObjAddr: 0x960, symBinAddr: 0x1000027C4, symSize: 0xC }
  - { offsetInCU: 0x8A0B, offset: 0x8A0B, size: 0x8, addend: 0x0, symName: __ZNSt3__117__libcpp_allocateB8ue170006Emm, symObjAddr: 0xC58, symBinAddr: 0x100002ABC, symSize: 0x28 }
  - { offsetInCU: 0x8A48, offset: 0x8A48, size: 0x8, addend: 0x0, symName: __ZNSt3__121__libcpp_operator_newB8ue170006IJmEEEPvDpT_, symObjAddr: 0xC94, symBinAddr: 0x100002AF8, symSize: 0x24 }
  - { offsetInCU: 0x8A81, offset: 0x8A81, size: 0x8, addend: 0x0, symName: __ZNSt3__119__libcpp_deallocateB8ue170006EPvmm, symObjAddr: 0xF0C, symBinAddr: 0x100002D70, symSize: 0x30 }
  - { offsetInCU: 0x8AC9, offset: 0x8AC9, size: 0x8, addend: 0x0, symName: __ZNSt3__127__do_deallocate_handle_sizeB8ue170006IJEEEvPvmDpT_, symObjAddr: 0xF3C, symBinAddr: 0x100002DA0, symSize: 0x28 }
  - { offsetInCU: 0x8B07, offset: 0x8B07, size: 0x8, addend: 0x0, symName: __ZNSt3__124__libcpp_operator_deleteB8ue170006IJPvEEEvDpT_, symObjAddr: 0xF64, symBinAddr: 0x100002DC8, symSize: 0x24 }
  - { offsetInCU: 0x8B3C, offset: 0x8B3C, size: 0x8, addend: 0x0, symName: __ZNSt3__112__to_addressB8ue170006IiEEPT_S2_, symObjAddr: 0x1438, symBinAddr: 0x10000329C, symSize: 0x14 }
  - { offsetInCU: 0x8B71, offset: 0x8B71, size: 0x8, addend: 0x0, symName: __ZNSt3__13maxB8ue170006ImEERKT_S3_S3_, symObjAddr: 0x1B74, symBinAddr: 0x1000039D8, symSize: 0x2C }
  - { offsetInCU: 0x8BB4, offset: 0x8BB4, size: 0x8, addend: 0x0, symName: __ZNSt3__13minB8ue170006ImEERKT_S3_S3_, symObjAddr: 0x1BA0, symBinAddr: 0x100003A04, symSize: 0x2C }
  - { offsetInCU: 0x8DF8, offset: 0x8DF8, size: 0x8, addend: 0x0, symName: __ZNSt3__13minB8ue170006ImNS_6__lessIvvEEEERKT_S5_S5_T0_, symObjAddr: 0x1C2C, symBinAddr: 0x100003A90, symSize: 0x54 }
  - { offsetInCU: 0x8E97, offset: 0x8E97, size: 0x8, addend: 0x0, symName: __ZNSt3__120__throw_length_errorB8ue170006EPKc, symObjAddr: 0x1D08, symBinAddr: 0x100003B6C, symSize: 0x64 }
  - { offsetInCU: 0x8EC1, offset: 0x8EC1, size: 0x8, addend: 0x0, symName: __ZNSt3__13maxB8ue170006ImNS_6__lessIvvEEEERKT_S5_S5_T0_, symObjAddr: 0x1DEC, symBinAddr: 0x100003C50, symSize: 0x54 }
  - { offsetInCU: 0x8F1B, offset: 0x8F1B, size: 0x8, addend: 0x0, symName: __ZNSt3__119__allocate_at_leastB8ue170006INS_9allocatorIiEEEENS_19__allocation_resultINS_16allocator_traitsIT_E7pointerEEERS5_m, symObjAddr: 0x1F50, symBinAddr: 0x100003DB4, symSize: 0x40 }
  - { offsetInCU: 0x8F5E, offset: 0x8F5E, size: 0x8, addend: 0x0, symName: __ZNSt3__142__uninitialized_allocator_move_if_noexceptB8ue170006INS_9allocatorIiEENS_16reverse_iteratorIPiEES5_ivEET1_RT_T0_S9_S6_, symObjAddr: 0x2130, symBinAddr: 0x100003F94, symSize: 0xE8 }
  - { offsetInCU: 0x8FDB, offset: 0x8FDB, size: 0x8, addend: 0x0, symName: __ZNSt3__14swapB8ue170006IPiEEvRT_S3_, symObjAddr: 0x2264, symBinAddr: 0x1000040C8, symSize: 0x3C }
  - { offsetInCU: 0x902C, offset: 0x902C, size: 0x8, addend: 0x0, symName: __ZNSt3__1neB8ue170006IPiS1_EEbRKNS_16reverse_iteratorIT_EERKNS2_IT0_EE, symObjAddr: 0x234C, symBinAddr: 0x1000041B0, symSize: 0x48 }
  - { offsetInCU: 0x909D, offset: 0x909D, size: 0x8, addend: 0x0, symName: __ZNSt3__114__construct_atB8ue170006IiJiEPiEEPT_S3_DpOT0_, symObjAddr: 0x2394, symBinAddr: 0x1000041F8, symSize: 0x2C }
  - { offsetInCU: 0x910D, offset: 0x910D, size: 0x8, addend: 0x0, symName: __ZNSt3__112__to_addressB8ue170006INS_16reverse_iteratorIPiEEvEEu7__decayIDTclsr19__to_address_helperIT_EE6__callclsr3stdE7declvalIRKS4_EEEEES6_, symObjAddr: 0x23C0, symBinAddr: 0x100004224, symSize: 0x24 }
  - { offsetInCU: 0x9143, offset: 0x9143, size: 0x8, addend: 0x0, symName: __ZNSt3__14moveB8ue170006INS_16reverse_iteratorIPiEES3_EET0_T_S5_S4_, symObjAddr: 0x242C, symBinAddr: 0x100004290, symSize: 0x78 }
  - { offsetInCU: 0x91C6, offset: 0x91C6, size: 0x8, addend: 0x0, symName: __ZNSt3__16__moveB8ue170006INS_17_ClassicAlgPolicyENS_16reverse_iteratorIPiEES4_S4_EENS_4pairIT0_T2_EES6_T1_S7_, symObjAddr: 0x2514, symBinAddr: 0x100004378, symSize: 0x64 }
  - { offsetInCU: 0x9232, offset: 0x9232, size: 0x8, addend: 0x0, symName: __ZNSt3__123__dispatch_copy_or_moveB8ue170006INS_17_ClassicAlgPolicyENS_11__move_loopIS1_EENS_14__move_trivialENS_16reverse_iteratorIPiEES7_S7_EENS_4pairIT2_T4_EES9_T3_SA_, symObjAddr: 0x2578, symBinAddr: 0x1000043DC, symSize: 0x64 }
  - { offsetInCU: 0x92B0, offset: 0x92B0, size: 0x8, addend: 0x0, symName: __ZNSt3__121__unwrap_and_dispatchB8ue170006INS_10__overloadINS_11__move_loopINS_17_ClassicAlgPolicyEEENS_14__move_trivialEEENS_16reverse_iteratorIPiEES9_S9_Li0EEENS_4pairIT0_T2_EESB_T1_SC_, symObjAddr: 0x25DC, symBinAddr: 0x100004440, symSize: 0x12C }
  - { offsetInCU: 0x9340, offset: 0x9340, size: 0x8, addend: 0x0, symName: __ZNSt3__114__unwrap_rangeB8ue170006INS_16reverse_iteratorIPiEES3_EENS_4pairIT0_S5_EET_S7_, symObjAddr: 0x2708, symBinAddr: 0x10000456C, symSize: 0x84 }
  - { offsetInCU: 0x9494, offset: 0x9494, size: 0x8, addend: 0x0, symName: __ZNSt3__113__unwrap_iterB8ue170006INS_16reverse_iteratorIPiEENS_18__unwrap_iter_implIS3_Lb0EEELi0EEEDTclsrT0_8__unwrapclsr3stdE7declvalIT_EEEES7_, symObjAddr: 0x282C, symBinAddr: 0x100004690, symSize: 0x44 }
  - { offsetInCU: 0x94D8, offset: 0x94D8, size: 0x8, addend: 0x0, symName: __ZNSt3__19make_pairB8ue170006INS_16reverse_iteratorIPiEES3_EENS_4pairINS_18__unwrap_ref_decayIT_E4typeENS5_IT0_E4typeEEEOS6_OS9_, symObjAddr: 0x2870, symBinAddr: 0x1000046D4, symSize: 0x38 }
  - { offsetInCU: 0x9527, offset: 0x9527, size: 0x8, addend: 0x0, symName: __ZNSt3__114__rewrap_rangeB8ue170006INS_16reverse_iteratorIPiEES3_EET_S4_T0_, symObjAddr: 0x28A8, symBinAddr: 0x10000470C, symSize: 0x5C }
  - { offsetInCU: 0x9573, offset: 0x9573, size: 0x8, addend: 0x0, symName: __ZNSt3__113__rewrap_iterB8ue170006INS_16reverse_iteratorIPiEES3_NS_18__unwrap_iter_implIS3_Lb0EEEEET_S6_T0_, symObjAddr: 0x2904, symBinAddr: 0x100004768, symSize: 0x88 }
  - { offsetInCU: 0x967A, offset: 0x967A, size: 0x8, addend: 0x0, symName: __ZNSt3__122__make_exception_guardB8ue170006INS_6vectorIiNS_9allocatorIiEEE16__destroy_vectorEEENS_28__exception_guard_exceptionsIT_EES7_, symObjAddr: 0x2E90, symBinAddr: 0x100004CF4, symSize: 0x40 }
  - { offsetInCU: 0x96AF, offset: 0x96AF, size: 0x8, addend: 0x0, symName: __ZNSt3__130__uninitialized_allocator_copyB8ue170006INS_9allocatorIiEEPiS3_S3_EET2_RT_T0_T1_S4_, symObjAddr: 0x30B0, symBinAddr: 0x100004F14, symSize: 0x80 }
  - { offsetInCU: 0x974C, offset: 0x974C, size: 0x8, addend: 0x0, symName: __ZNSt3__114__unwrap_rangeB8ue170006IPiS1_EENS_4pairIT0_S3_EET_S5_, symObjAddr: 0x3130, symBinAddr: 0x100004F94, symSize: 0x60 }
  - { offsetInCU: 0x9798, offset: 0x9798, size: 0x8, addend: 0x0, symName: __ZNSt3__135__uninitialized_allocator_copy_implB8ue170006INS_9allocatorIiEEPiS3_S3_EET2_RT_T0_T1_S4_, symObjAddr: 0x3190, symBinAddr: 0x100004FF4, symSize: 0xFC }
  - { offsetInCU: 0x9836, offset: 0x9836, size: 0x8, addend: 0x0, symName: __ZNSt3__113__unwrap_iterB8ue170006IPiNS_18__unwrap_iter_implIS1_Lb1EEELi0EEEDTclsrT0_8__unwrapclsr3stdE7declvalIT_EEEES5_, symObjAddr: 0x328C, symBinAddr: 0x1000050F0, symSize: 0x24 }
  - { offsetInCU: 0x987A, offset: 0x987A, size: 0x8, addend: 0x0, symName: __ZNSt3__113__rewrap_iterB8ue170006IPiS1_NS_18__unwrap_iter_implIS1_Lb1EEEEET_S4_T0_, symObjAddr: 0x32B0, symBinAddr: 0x100005114, symSize: 0x50 }
  - { offsetInCU: 0x98CF, offset: 0x98CF, size: 0x8, addend: 0x0, symName: __ZNSt3__19make_pairB8ue170006IPiS1_EENS_4pairINS_18__unwrap_ref_decayIT_E4typeENS3_IT0_E4typeEEEOS4_OS7_, symObjAddr: 0x3300, symBinAddr: 0x100005164, symSize: 0x38 }
  - { offsetInCU: 0x99CB, offset: 0x99CB, size: 0x8, addend: 0x0, symName: __ZNSt3__122__make_exception_guardB8ue170006INS_29_AllocatorDestroyRangeReverseINS_9allocatorIiEEPiEEEENS_28__exception_guard_exceptionsIT_EES7_, symObjAddr: 0x33A8, symBinAddr: 0x10000520C, symSize: 0x4C }
  - { offsetInCU: 0x9A01, offset: 0x9A01, size: 0x8, addend: 0x0, symName: __ZNSt3__119__allocator_destroyB8ue170006INS_9allocatorIiEENS_16reverse_iteratorIPiEES5_EEvRT_T0_T1_, symObjAddr: 0x3628, symBinAddr: 0x10000548C, symSize: 0x70 }
  - { offsetInCU: 0x9AB7, offset: 0x9AB7, size: 0x8, addend: 0x0, symName: __ZNSt3__112__to_addressB8ue170006IDsEEPT_S2_, symObjAddr: 0x3ADC, symBinAddr: 0x100005940, symSize: 0x14 }
  - { offsetInCU: 0x9B1F, offset: 0x9B1F, size: 0x8, addend: 0x0, symName: __ZNSt3__14copyB8ue170006IPKDsPDsEET0_T_S5_S4_, symObjAddr: 0x3E44, symBinAddr: 0x100005CA8, symSize: 0x40 }
  - { offsetInCU: 0x9B79, offset: 0x9B79, size: 0x8, addend: 0x0, symName: __ZNSt3__16__copyB8ue170006INS_17_ClassicAlgPolicyEPKDsS3_PDsEENS_4pairIT0_T2_EES6_T1_S7_, symObjAddr: 0x3E84, symBinAddr: 0x100005CE8, symSize: 0x44 }
  - { offsetInCU: 0x9BE5, offset: 0x9BE5, size: 0x8, addend: 0x0, symName: __ZNSt3__123__dispatch_copy_or_moveB8ue170006INS_17_ClassicAlgPolicyENS_11__copy_loopIS1_EENS_14__copy_trivialEPKDsS6_PDsEENS_4pairIT2_T4_EES9_T3_SA_, symObjAddr: 0x3EC8, symBinAddr: 0x100005D2C, symSize: 0x44 }
  - { offsetInCU: 0x9C63, offset: 0x9C63, size: 0x8, addend: 0x0, symName: __ZNSt3__121__unwrap_and_dispatchB8ue170006INS_10__overloadINS_11__copy_loopINS_17_ClassicAlgPolicyEEENS_14__copy_trivialEEEPKDsS8_PDsLi0EEENS_4pairIT0_T2_EESB_T1_SC_, symObjAddr: 0x3F0C, symBinAddr: 0x100005D70, symSize: 0xB4 }
  - { offsetInCU: 0x9CF1, offset: 0x9CF1, size: 0x8, addend: 0x0, symName: __ZNSt3__114__unwrap_rangeB8ue170006IPKDsS2_EENS_4pairIT0_S4_EET_S6_, symObjAddr: 0x3FC0, symBinAddr: 0x100005E24, symSize: 0x60 }
  - { offsetInCU: 0x9E30, offset: 0x9E30, size: 0x8, addend: 0x0, symName: __ZNSt3__113__unwrap_iterB8ue170006IPDsNS_18__unwrap_iter_implIS1_Lb1EEELi0EEEDTclsrT0_8__unwrapclsr3stdE7declvalIT_EEEES5_, symObjAddr: 0x4068, symBinAddr: 0x100005ECC, symSize: 0x24 }
  - { offsetInCU: 0x9E74, offset: 0x9E74, size: 0x8, addend: 0x0, symName: __ZNSt3__19make_pairB8ue170006IPKDsPDsEENS_4pairINS_18__unwrap_ref_decayIT_E4typeENS5_IT0_E4typeEEEOS6_OS9_, symObjAddr: 0x408C, symBinAddr: 0x100005EF0, symSize: 0x38 }
  - { offsetInCU: 0x9EC3, offset: 0x9EC3, size: 0x8, addend: 0x0, symName: __ZNSt3__114__rewrap_rangeB8ue170006IPKDsS2_EET_S3_T0_, symObjAddr: 0x40C4, symBinAddr: 0x100005F28, symSize: 0x2C }
  - { offsetInCU: 0x9F0F, offset: 0x9F0F, size: 0x8, addend: 0x0, symName: __ZNSt3__113__rewrap_iterB8ue170006IPDsS1_NS_18__unwrap_iter_implIS1_Lb1EEEEET_S4_T0_, symObjAddr: 0x40F0, symBinAddr: 0x100005F54, symSize: 0x50 }
  - { offsetInCU: 0x9F64, offset: 0x9F64, size: 0x8, addend: 0x0, symName: __ZNSt3__19make_pairB8ue170006IPKDsS2_EENS_4pairINS_18__unwrap_ref_decayIT_E4typeENS4_IT0_E4typeEEEOS5_OS8_, symObjAddr: 0x4140, symBinAddr: 0x100005FA4, symSize: 0x38 }
  - { offsetInCU: 0x9FB3, offset: 0x9FB3, size: 0x8, addend: 0x0, symName: __ZNSt3__113__unwrap_iterB8ue170006IPKDsNS_18__unwrap_iter_implIS2_Lb1EEELi0EEEDTclsrT0_8__unwrapclsr3stdE7declvalIT_EEEES6_, symObjAddr: 0x4178, symBinAddr: 0x100005FDC, symSize: 0x24 }
  - { offsetInCU: 0xA0F7, offset: 0xA0F7, size: 0x8, addend: 0x0, symName: __ZNSt3__112__to_addressB8ue170006IKDsEEPT_S3_, symObjAddr: 0x4230, symBinAddr: 0x100006094, symSize: 0x14 }
  - { offsetInCU: 0xA12C, offset: 0xA12C, size: 0x8, addend: 0x0, symName: __ZNSt3__119__copy_trivial_implB8ue170006IKDsDsEENS_4pairIPT_PT0_EES4_S4_S6_, symObjAddr: 0x4244, symBinAddr: 0x1000060A8, symSize: 0x80 }
  - { offsetInCU: 0xA194, offset: 0xA194, size: 0x8, addend: 0x0, symName: __ZNSt3__119__constexpr_memmoveB8ue170006IDsKDsLi0EEEPT_S3_PT0_NS_15__element_countE, symObjAddr: 0x42C4, symBinAddr: 0x100006128, symSize: 0xA0 }
  - { offsetInCU: 0xA202, offset: 0xA202, size: 0x8, addend: 0x0, symName: __ZNSt3__19make_pairB8ue170006IRPKDsPDsEENS_4pairINS_18__unwrap_ref_decayIT_E4typeENS6_IT0_E4typeEEEOS7_OSA_, symObjAddr: 0x4364, symBinAddr: 0x1000061C8, symSize: 0x38 }
  - { offsetInCU: 0xA2A4, offset: 0xA2A4, size: 0x8, addend: 0x0, symName: __ZNSt3__113__rewrap_iterB8ue170006IPKDsS2_NS_18__unwrap_iter_implIS2_Lb1EEEEET_S5_T0_, symObjAddr: 0x4430, symBinAddr: 0x100006294, symSize: 0x50 }
  - { offsetInCU: 0xA2F9, offset: 0xA2F9, size: 0x8, addend: 0x0, symName: __ZNSt3__119__allocate_at_leastB8ue170006INS_9allocatorIDsEEEENS_19__allocation_resultINS_16allocator_traitsIT_E7pointerEEERS5_m, symObjAddr: 0x463C, symBinAddr: 0x1000064A0, symSize: 0x40 }
  - { offsetInCU: 0xA571, offset: 0xA571, size: 0x8, addend: 0x0, symName: __ZNSt3__116__pad_and_outputB8ue170006IcNS_11char_traitsIcEEEENS_19ostreambuf_iteratorIT_T0_EES6_PKS4_S8_S8_RNS_8ios_baseES4_, symObjAddr: 0x4CA4, symBinAddr: 0x100006B08, symSize: 0x248 }
  - { offsetInCU: 0xA640, offset: 0xA640, size: 0x8, addend: 0x0, symName: __ZNSt3__112__to_addressB8ue170006IKcEEPT_S3_, symObjAddr: 0x5214, symBinAddr: 0x100007078, symSize: 0x14 }
  - { offsetInCU: 0xA6A8, offset: 0xA6A8, size: 0x8, addend: 0x0, symName: __ZNSt3__19use_facetB8ue170006INS_5ctypeIcEEEERKT_RKNS_6localeE, symObjAddr: 0x54EC, symBinAddr: 0x100007350, symSize: 0x2C }
  - { offsetInCU: 0xAB75, offset: 0xAB75, size: 0x8, addend: 0x0, symName: __ZNSt3__118__constexpr_strlenB8ue170006EPKc, symObjAddr: 0x5584, symBinAddr: 0x1000073E8, symSize: 0x24 }
  - { offsetInCU: 0xAE14, offset: 0xAE14, size: 0x8, addend: 0x0, symName: __ZSt28__throw_bad_array_new_lengthB8ue170006v, symObjAddr: 0xC24, symBinAddr: 0x100002A88, symSize: 0x34 }
  - { offsetInCU: 0xB4F2, offset: 0xB4F2, size: 0x8, addend: 0x0, symName: __ZNSt3__16vectorIiNS_9allocatorIiEEE26__swap_out_circular_bufferERNS_14__split_bufferIiRS2_EE, symObjAddr: 0x19A8, symBinAddr: 0x10000380C, symSize: 0x110 }
  - { offsetInCU: 0xD988, offset: 0xD988, size: 0x8, addend: 0x0, symName: __Z26get_character_From_Keycodeiii, symObjAddr: 0x0, symBinAddr: 0x100001E64, symSize: 0x1EC }
  - { offsetInCU: 0xDA1B, offset: 0xDA1B, size: 0x8, addend: 0x0, symName: __ZNSt3__112basic_stringIDsNS_11char_traitsIDsEENS_9allocatorIDsEEEC1B8ue170006Ev, symObjAddr: 0x1EC, symBinAddr: 0x100002050, symSize: 0x2C }
  - { offsetInCU: 0xDA44, offset: 0xDA44, size: 0x8, addend: 0x0, symName: __ZNSt3__16vectorIiNS_9allocatorIiEEEC1B8ue170006Ev, symObjAddr: 0x218, symBinAddr: 0x10000207C, symSize: 0x2C }
  - { offsetInCU: 0xDA6C, offset: 0xDA6C, size: 0x8, addend: 0x0, symName: __ZNSt3__16vectorIiNS_9allocatorIiEEE9push_backB8ue170006ERKi, symObjAddr: 0x244, symBinAddr: 0x1000020A8, symSize: 0x6C }
  - { offsetInCU: 0xDAA1, offset: 0xDAA1, size: 0x8, addend: 0x0, symName: __Z26get_character_From_KeycodeNSt3__16vectorIiNS_9allocatorIiEEEEiPK16UCKeyboardLayout, symObjAddr: 0x2B0, symBinAddr: 0x100002114, symSize: 0x21C }
  - { offsetInCU: 0xDB7E, offset: 0xDB7E, size: 0x8, addend: 0x0, symName: __ZNSt3__16vectorIiNS_9allocatorIiEEEC1ERKS3_, symObjAddr: 0x4CC, symBinAddr: 0x100002330, symSize: 0x34 }
  - { offsetInCU: 0xDBB7, offset: 0xDBB7, size: 0x8, addend: 0x0, symName: __ZNSt3__112basic_stringIDsNS_11char_traitsIDsEENS_9allocatorIDsEEEaSERKS5_, symObjAddr: 0x500, symBinAddr: 0x100002364, symSize: 0x108 }
  - { offsetInCU: 0xDBED, offset: 0xDBED, size: 0x8, addend: 0x0, symName: __ZNSt3__112basic_stringIDsNS_11char_traitsIDsEENS_9allocatorIDsEEED1Ev, symObjAddr: 0x608, symBinAddr: 0x10000246C, symSize: 0x2C }
  - { offsetInCU: 0xDC16, offset: 0xDC16, size: 0x8, addend: 0x0, symName: __ZNSt3__16vectorIiNS_9allocatorIiEEED1B8ue170006Ev, symObjAddr: 0x640, symBinAddr: 0x1000024A4, symSize: 0x2C }
  - { offsetInCU: 0xDC3F, offset: 0xDC3F, size: 0x8, addend: 0x0, symName: __ZNKSt3__16vectorIiNS_9allocatorIiEEE4sizeB8ue170006Ev, symObjAddr: 0x66C, symBinAddr: 0x1000024D0, symSize: 0x28 }
  - { offsetInCU: 0xDC64, offset: 0xDC64, size: 0x8, addend: 0x0, symName: __ZNSt3__16vectorIiNS_9allocatorIiEEEixB8ue170006Em, symObjAddr: 0x694, symBinAddr: 0x1000024F8, symSize: 0x24 }
  - { offsetInCU: 0xDC9F, offset: 0xDC9F, size: 0x8, addend: 0x0, symName: __ZNSt3__112basic_stringIDsNS_11char_traitsIDsEENS_9allocatorIDsEEEC1B8ue170006ILi0EEEPKDs, symObjAddr: 0x6B8, symBinAddr: 0x10000251C, symSize: 0x34 }
  - { offsetInCU: 0xDCDD, offset: 0xDCDD, size: 0x8, addend: 0x0, symName: __Z4fun3v, symObjAddr: 0x6EC, symBinAddr: 0x100002550, symSize: 0x24 }
  - { offsetInCU: 0xDCF7, offset: 0xDCF7, size: 0x8, addend: 0x0, symName: __ZNSt3__112basic_stringIDsNS_11char_traitsIDsEENS_9allocatorIDsEEEC2B8ue170006Ev, symObjAddr: 0x758, symBinAddr: 0x1000025BC, symSize: 0x3C }
  - { offsetInCU: 0xDD25, offset: 0xDD25, size: 0x8, addend: 0x0, symName: __ZNSt3__117__compressed_pairINS_12basic_stringIDsNS_11char_traitsIDsEENS_9allocatorIDsEEE5__repES5_EC1B8ue170006INS_18__default_init_tagESA_EEOT_OT0_, symObjAddr: 0x794, symBinAddr: 0x1000025F8, symSize: 0x3C }
  - { offsetInCU: 0xDD7C, offset: 0xDD7C, size: 0x8, addend: 0x0, symName: __ZNSt3__112basic_stringIDsNS_11char_traitsIDsEENS_9allocatorIDsEEE14__default_initB8ue170006Ev, symObjAddr: 0x7D0, symBinAddr: 0x100002634, symSize: 0xB0 }
  - { offsetInCU: 0xDDCE, offset: 0xDDCE, size: 0x8, addend: 0x0, symName: __ZNSt3__117__compressed_pairINS_12basic_stringIDsNS_11char_traitsIDsEENS_9allocatorIDsEEE5__repES5_EC2B8ue170006INS_18__default_init_tagESA_EEOT_OT0_, symObjAddr: 0x880, symBinAddr: 0x1000026E4, symSize: 0x3C }
  - { offsetInCU: 0xDE25, offset: 0xDE25, size: 0x8, addend: 0x0, symName: __ZNSt3__122__compressed_pair_elemINS_12basic_stringIDsNS_11char_traitsIDsEENS_9allocatorIDsEEE5__repELi0ELb0EEC2B8ue170006ENS_18__default_init_tagE, symObjAddr: 0x8BC, symBinAddr: 0x100002720, symSize: 0x14 }
  - { offsetInCU: 0xDE59, offset: 0xDE59, size: 0x8, addend: 0x0, symName: __ZNSt3__122__compressed_pair_elemINS_9allocatorIDsEELi1ELb1EEC2B8ue170006ENS_18__default_init_tagE, symObjAddr: 0x8D0, symBinAddr: 0x100002734, symSize: 0x2C }
  - { offsetInCU: 0xDE8D, offset: 0xDE8D, size: 0x8, addend: 0x0, symName: __ZNSt3__19allocatorIDsEC2B8ue170006Ev, symObjAddr: 0x8FC, symBinAddr: 0x100002760, symSize: 0x2C }
  - { offsetInCU: 0xDEB6, offset: 0xDEB6, size: 0x8, addend: 0x0, symName: __ZNSt3__116__non_trivial_ifILb1ENS_9allocatorIDsEEEC2B8ue170006Ev, symObjAddr: 0x928, symBinAddr: 0x10000278C, symSize: 0x14 }
  - { offsetInCU: 0xDEDF, offset: 0xDEDF, size: 0x8, addend: 0x0, symName: __ZNSt3__117__compressed_pairINS_12basic_stringIDsNS_11char_traitsIDsEENS_9allocatorIDsEEE5__repES5_E5firstB8ue170006Ev, symObjAddr: 0x93C, symBinAddr: 0x1000027A0, symSize: 0x24 }
  - { offsetInCU: 0xDF04, offset: 0xDF04, size: 0x8, addend: 0x0, symName: __ZNSt3__112basic_stringIDsNS_11char_traitsIDsEENS_9allocatorIDsEEE11__recommendB8ue170006Em, symObjAddr: 0x96C, symBinAddr: 0x1000027D0, symSize: 0x9C }
  - { offsetInCU: 0xDF37, offset: 0xDF37, size: 0x8, addend: 0x0, symName: __ZNSt3__116allocator_traitsINS_9allocatorIDsEEE8allocateB8ue170006ERS2_m, symObjAddr: 0xA08, symBinAddr: 0x10000286C, symSize: 0x2C }
  - { offsetInCU: 0xDF6A, offset: 0xDF6A, size: 0x8, addend: 0x0, symName: __ZNSt3__112basic_stringIDsNS_11char_traitsIDsEENS_9allocatorIDsEEE7__allocB8ue170006Ev, symObjAddr: 0xA34, symBinAddr: 0x100002898, symSize: 0x24 }
  - { offsetInCU: 0xDF8F, offset: 0xDF8F, size: 0x8, addend: 0x0, symName: __ZNSt3__112basic_stringIDsNS_11char_traitsIDsEENS_9allocatorIDsEEE16__begin_lifetimeB8ue170006EPDsm, symObjAddr: 0xA58, symBinAddr: 0x1000028BC, symSize: 0x14 }
  - { offsetInCU: 0xDFC2, offset: 0xDFC2, size: 0x8, addend: 0x0, symName: __ZNSt3__112basic_stringIDsNS_11char_traitsIDsEENS_9allocatorIDsEEE18__set_long_pointerB8ue170006EPDs, symObjAddr: 0xA6C, symBinAddr: 0x1000028D0, symSize: 0x38 }
  - { offsetInCU: 0xDFF6, offset: 0xDFF6, size: 0x8, addend: 0x0, symName: __ZNSt3__112basic_stringIDsNS_11char_traitsIDsEENS_9allocatorIDsEEE14__set_long_capB8ue170006Em, symObjAddr: 0xAA4, symBinAddr: 0x100002908, symSize: 0x70 }
  - { offsetInCU: 0xE02A, offset: 0xE02A, size: 0x8, addend: 0x0, symName: __ZNSt3__112basic_stringIDsNS_11char_traitsIDsEENS_9allocatorIDsEEE15__set_long_sizeB8ue170006Em, symObjAddr: 0xB14, symBinAddr: 0x100002978, symSize: 0x38 }
  - { offsetInCU: 0xE05E, offset: 0xE05E, size: 0x8, addend: 0x0, symName: __ZNSt3__122__compressed_pair_elemINS_12basic_stringIDsNS_11char_traitsIDsEENS_9allocatorIDsEEE5__repELi0ELb0EE5__getB8ue170006Ev, symObjAddr: 0xB4C, symBinAddr: 0x1000029B0, symSize: 0x14 }
  - { offsetInCU: 0xE083, offset: 0xE083, size: 0x8, addend: 0x0, symName: __ZNSt3__112basic_stringIDsNS_11char_traitsIDsEENS_9allocatorIDsEEE10__align_itB8ue170006ILm8EEEmm, symObjAddr: 0xB60, symBinAddr: 0x1000029C4, symSize: 0x1C }
  - { offsetInCU: 0xE0B1, offset: 0xE0B1, size: 0x8, addend: 0x0, symName: __ZNSt3__19allocatorIDsE8allocateB8ue170006Em, symObjAddr: 0xB7C, symBinAddr: 0x1000029E0, symSize: 0x84 }
  - { offsetInCU: 0xE0EE, offset: 0xE0EE, size: 0x8, addend: 0x0, symName: __ZNSt3__116allocator_traitsINS_9allocatorIDsEEE8max_sizeB8ue170006IS2_vEEmRKS2_, symObjAddr: 0xC00, symBinAddr: 0x100002A64, symSize: 0x24 }
  - { offsetInCU: 0xE11C, offset: 0xE11C, size: 0x8, addend: 0x0, symName: __ZNKSt3__19allocatorIDsE8max_sizeB8ue170006Ev, symObjAddr: 0xC80, symBinAddr: 0x100002AE4, symSize: 0x14 }
  - { offsetInCU: 0xE141, offset: 0xE141, size: 0x8, addend: 0x0, symName: __ZNSt3__117__compressed_pairINS_12basic_stringIDsNS_11char_traitsIDsEENS_9allocatorIDsEEE5__repES5_E6secondB8ue170006Ev, symObjAddr: 0xCB8, symBinAddr: 0x100002B1C, symSize: 0x24 }
  - { offsetInCU: 0xE166, offset: 0xE166, size: 0x8, addend: 0x0, symName: __ZNSt3__122__compressed_pair_elemINS_9allocatorIDsEELi1ELb1EE5__getB8ue170006Ev, symObjAddr: 0xCDC, symBinAddr: 0x100002B40, symSize: 0x14 }
  - { offsetInCU: 0xE18B, offset: 0xE18B, size: 0x8, addend: 0x0, symName: __ZNSt3__112basic_stringIDsNS_11char_traitsIDsEENS_9allocatorIDsEEED2Ev, symObjAddr: 0xCF0, symBinAddr: 0x100002B54, symSize: 0x74 }
  - { offsetInCU: 0xE1B4, offset: 0xE1B4, size: 0x8, addend: 0x0, symName: __ZNKSt3__112basic_stringIDsNS_11char_traitsIDsEENS_9allocatorIDsEEE9__is_longB8ue170006Ev, symObjAddr: 0xD64, symBinAddr: 0x100002BC8, symSize: 0x74 }
  - { offsetInCU: 0xE1D9, offset: 0xE1D9, size: 0x8, addend: 0x0, symName: __ZNSt3__116allocator_traitsINS_9allocatorIDsEEE10deallocateB8ue170006ERS2_PDsm, symObjAddr: 0xDD8, symBinAddr: 0x100002C3C, symSize: 0x34 }
  - { offsetInCU: 0xE21B, offset: 0xE21B, size: 0x8, addend: 0x0, symName: __ZNSt3__112basic_stringIDsNS_11char_traitsIDsEENS_9allocatorIDsEEE18__get_long_pointerB8ue170006Ev, symObjAddr: 0xE0C, symBinAddr: 0x100002C70, symSize: 0x28 }
  - { offsetInCU: 0xE240, offset: 0xE240, size: 0x8, addend: 0x0, symName: __ZNKSt3__112basic_stringIDsNS_11char_traitsIDsEENS_9allocatorIDsEEE14__get_long_capB8ue170006Ev, symObjAddr: 0xE34, symBinAddr: 0x100002C98, symSize: 0x30 }
  - { offsetInCU: 0xE265, offset: 0xE265, size: 0x8, addend: 0x0, symName: __ZNKSt3__117__compressed_pairINS_12basic_stringIDsNS_11char_traitsIDsEENS_9allocatorIDsEEE5__repES5_E5firstB8ue170006Ev, symObjAddr: 0xE64, symBinAddr: 0x100002CC8, symSize: 0x24 }
  - { offsetInCU: 0xE28A, offset: 0xE28A, size: 0x8, addend: 0x0, symName: __ZNKSt3__122__compressed_pair_elemINS_12basic_stringIDsNS_11char_traitsIDsEENS_9allocatorIDsEEE5__repELi0ELb0EE5__getB8ue170006Ev, symObjAddr: 0xE88, symBinAddr: 0x100002CEC, symSize: 0x14 }
  - { offsetInCU: 0xE2AF, offset: 0xE2AF, size: 0x8, addend: 0x0, symName: __ZNSt3__19allocatorIDsE10deallocateB8ue170006EPDsm, symObjAddr: 0xE9C, symBinAddr: 0x100002D00, symSize: 0x70 }
  - { offsetInCU: 0xE2F0, offset: 0xE2F0, size: 0x8, addend: 0x0, symName: __ZNSt3__16vectorIiNS_9allocatorIiEEEC2B8ue170006Ev, symObjAddr: 0xF88, symBinAddr: 0x100002DEC, symSize: 0x44 }
  - { offsetInCU: 0xE31E, offset: 0xE31E, size: 0x8, addend: 0x0, symName: __ZNSt3__117__compressed_pairIPiNS_9allocatorIiEEEC1B8ue170006IDnNS_18__default_init_tagEEEOT_OT0_, symObjAddr: 0xFCC, symBinAddr: 0x100002E30, symSize: 0x3C }
  - { offsetInCU: 0xE375, offset: 0xE375, size: 0x8, addend: 0x0, symName: __ZNSt3__117__compressed_pairIPiNS_9allocatorIiEEEC2B8ue170006IDnNS_18__default_init_tagEEEOT_OT0_, symObjAddr: 0x1008, symBinAddr: 0x100002E6C, symSize: 0x40 }
  - { offsetInCU: 0xE3CC, offset: 0xE3CC, size: 0x8, addend: 0x0, symName: __ZNSt3__122__compressed_pair_elemIPiLi0ELb0EEC2B8ue170006IDnvEEOT_, symObjAddr: 0x1048, symBinAddr: 0x100002EAC, symSize: 0x1C }
  - { offsetInCU: 0xE40D, offset: 0xE40D, size: 0x8, addend: 0x0, symName: __ZNSt3__122__compressed_pair_elemINS_9allocatorIiEELi1ELb1EEC2B8ue170006ENS_18__default_init_tagE, symObjAddr: 0x1064, symBinAddr: 0x100002EC8, symSize: 0x2C }
  - { offsetInCU: 0xE441, offset: 0xE441, size: 0x8, addend: 0x0, symName: __ZNSt3__19allocatorIiEC2B8ue170006Ev, symObjAddr: 0x1090, symBinAddr: 0x100002EF4, symSize: 0x2C }
  - { offsetInCU: 0xE46A, offset: 0xE46A, size: 0x8, addend: 0x0, symName: __ZNSt3__116__non_trivial_ifILb1ENS_9allocatorIiEEEC2B8ue170006Ev, symObjAddr: 0x10BC, symBinAddr: 0x100002F20, symSize: 0x14 }
  - { offsetInCU: 0xE493, offset: 0xE493, size: 0x8, addend: 0x0, symName: __ZNSt3__16vectorIiNS_9allocatorIiEEED2B8ue170006Ev, symObjAddr: 0x10D0, symBinAddr: 0x100002F34, symSize: 0x3C }
  - { offsetInCU: 0xE4BC, offset: 0xE4BC, size: 0x8, addend: 0x0, symName: __ZNSt3__16vectorIiNS_9allocatorIiEEE16__destroy_vectorC1B8ue170006ERS3_, symObjAddr: 0x110C, symBinAddr: 0x100002F70, symSize: 0x34 }
  - { offsetInCU: 0xE4F4, offset: 0xE4F4, size: 0x8, addend: 0x0, symName: __ZNSt3__16vectorIiNS_9allocatorIiEEE16__destroy_vectorclB8ue170006Ev, symObjAddr: 0x1140, symBinAddr: 0x100002FA4, symSize: 0x90 }
  - { offsetInCU: 0xE519, offset: 0xE519, size: 0x8, addend: 0x0, symName: __ZNSt3__16vectorIiNS_9allocatorIiEEE16__destroy_vectorC2B8ue170006ERS3_, symObjAddr: 0x11D0, symBinAddr: 0x100003034, symSize: 0x20 }
  - { offsetInCU: 0xE551, offset: 0xE551, size: 0x8, addend: 0x0, symName: __ZNSt3__16vectorIiNS_9allocatorIiEEE7__clearB8ue170006Ev, symObjAddr: 0x11F0, symBinAddr: 0x100003054, symSize: 0x28 }
  - { offsetInCU: 0xE576, offset: 0xE576, size: 0x8, addend: 0x0, symName: __ZNKSt3__16vectorIiNS_9allocatorIiEEE17__annotate_deleteB8ue170006Ev, symObjAddr: 0x1218, symBinAddr: 0x10000307C, symSize: 0xB8 }
  - { offsetInCU: 0xE59B, offset: 0xE59B, size: 0x8, addend: 0x0, symName: __ZNSt3__116allocator_traitsINS_9allocatorIiEEE10deallocateB8ue170006ERS2_Pim, symObjAddr: 0x12D0, symBinAddr: 0x100003134, symSize: 0x34 }
  - { offsetInCU: 0xE5DD, offset: 0xE5DD, size: 0x8, addend: 0x0, symName: __ZNSt3__16vectorIiNS_9allocatorIiEEE7__allocB8ue170006Ev, symObjAddr: 0x1304, symBinAddr: 0x100003168, symSize: 0x28 }
  - { offsetInCU: 0xE602, offset: 0xE602, size: 0x8, addend: 0x0, symName: __ZNKSt3__16vectorIiNS_9allocatorIiEEE8capacityB8ue170006Ev, symObjAddr: 0x132C, symBinAddr: 0x100003190, symSize: 0x40 }
  - { offsetInCU: 0xE627, offset: 0xE627, size: 0x8, addend: 0x0, symName: __ZNSt3__16vectorIiNS_9allocatorIiEEE22__base_destruct_at_endB8ue170006EPi, symObjAddr: 0x136C, symBinAddr: 0x1000031D0, symSize: 0xA0 }
  - { offsetInCU: 0xE66A, offset: 0xE66A, size: 0x8, addend: 0x0, symName: __ZNSt3__116allocator_traitsINS_9allocatorIiEEE7destroyB8ue170006IivEEvRS2_PT_, symObjAddr: 0x140C, symBinAddr: 0x100003270, symSize: 0x2C }
  - { offsetInCU: 0xE6A7, offset: 0xE6A7, size: 0x8, addend: 0x0, symName: __ZNSt3__19allocatorIiE7destroyB8ue170006EPi, symObjAddr: 0x144C, symBinAddr: 0x1000032B0, symSize: 0x14 }
  - { offsetInCU: 0xE6DA, offset: 0xE6DA, size: 0x8, addend: 0x0, symName: __ZNKSt3__16vectorIiNS_9allocatorIiEEE31__annotate_contiguous_containerB8ue170006EPKvS5_S5_S5_, symObjAddr: 0x1460, symBinAddr: 0x1000032C4, symSize: 0x20 }
  - { offsetInCU: 0xE72B, offset: 0xE72B, size: 0x8, addend: 0x0, symName: __ZNKSt3__16vectorIiNS_9allocatorIiEEE4dataB8ue170006Ev, symObjAddr: 0x1480, symBinAddr: 0x1000032E4, symSize: 0x28 }
  - { offsetInCU: 0xE750, offset: 0xE750, size: 0x8, addend: 0x0, symName: __ZNSt3__19allocatorIiE10deallocateB8ue170006EPim, symObjAddr: 0x14A8, symBinAddr: 0x10000330C, symSize: 0x70 }
  - { offsetInCU: 0xE791, offset: 0xE791, size: 0x8, addend: 0x0, symName: __ZNSt3__117__compressed_pairIPiNS_9allocatorIiEEE6secondB8ue170006Ev, symObjAddr: 0x1518, symBinAddr: 0x10000337C, symSize: 0x24 }
  - { offsetInCU: 0xE7B6, offset: 0xE7B6, size: 0x8, addend: 0x0, symName: __ZNSt3__122__compressed_pair_elemINS_9allocatorIiEELi1ELb1EE5__getB8ue170006Ev, symObjAddr: 0x153C, symBinAddr: 0x1000033A0, symSize: 0x14 }
  - { offsetInCU: 0xE7DB, offset: 0xE7DB, size: 0x8, addend: 0x0, symName: __ZNKSt3__16vectorIiNS_9allocatorIiEEE9__end_capB8ue170006Ev, symObjAddr: 0x1550, symBinAddr: 0x1000033B4, symSize: 0x28 }
  - { offsetInCU: 0xE800, offset: 0xE800, size: 0x8, addend: 0x0, symName: __ZNKSt3__117__compressed_pairIPiNS_9allocatorIiEEE5firstB8ue170006Ev, symObjAddr: 0x1578, symBinAddr: 0x1000033DC, symSize: 0x24 }
  - { offsetInCU: 0xE825, offset: 0xE825, size: 0x8, addend: 0x0, symName: __ZNKSt3__122__compressed_pair_elemIPiLi0ELb0EE5__getB8ue170006Ev, symObjAddr: 0x159C, symBinAddr: 0x100003400, symSize: 0x14 }
  - { offsetInCU: 0xE84A, offset: 0xE84A, size: 0x8, addend: 0x0, symName: __ZNSt3__16vectorIiNS_9allocatorIiEEE9__end_capB8ue170006Ev, symObjAddr: 0x15B0, symBinAddr: 0x100003414, symSize: 0x28 }
  - { offsetInCU: 0xE86F, offset: 0xE86F, size: 0x8, addend: 0x0, symName: __ZNSt3__16vectorIiNS_9allocatorIiEEE22__construct_one_at_endB8ue170006IJRKiEEEvDpOT_, symObjAddr: 0x15D8, symBinAddr: 0x10000343C, symSize: 0x98 }
  - { offsetInCU: 0xE8BC, offset: 0xE8BC, size: 0x8, addend: 0x0, symName: __ZNSt3__16vectorIiNS_9allocatorIiEEE21__push_back_slow_pathIRKiEEvOT_, symObjAddr: 0x1670, symBinAddr: 0x1000034D4, symSize: 0xE0 }
  - { offsetInCU: 0xE919, offset: 0xE919, size: 0x8, addend: 0x0, symName: __ZNSt3__117__compressed_pairIPiNS_9allocatorIiEEE5firstB8ue170006Ev, symObjAddr: 0x1750, symBinAddr: 0x1000035B4, symSize: 0x24 }
  - { offsetInCU: 0xE93E, offset: 0xE93E, size: 0x8, addend: 0x0, symName: __ZNSt3__122__compressed_pair_elemIPiLi0ELb0EE5__getB8ue170006Ev, symObjAddr: 0x1774, symBinAddr: 0x1000035D8, symSize: 0x14 }
  - { offsetInCU: 0xE97C, offset: 0xE97C, size: 0x8, addend: 0x0, symName: __ZNSt3__16vectorIiNS_9allocatorIiEEE21_ConstructTransactionC1B8ue170006ERS3_m, symObjAddr: 0x1788, symBinAddr: 0x1000035EC, symSize: 0x3C }
  - { offsetInCU: 0xE9C3, offset: 0xE9C3, size: 0x8, addend: 0x0, symName: __ZNSt3__116allocator_traitsINS_9allocatorIiEEE9constructB8ue170006IiJRKiEvEEvRS2_PT_DpOT0_, symObjAddr: 0x17C4, symBinAddr: 0x100003628, symSize: 0x34 }
  - { offsetInCU: 0xEA1A, offset: 0xEA1A, size: 0x8, addend: 0x0, symName: __ZNSt3__16vectorIiNS_9allocatorIiEEE21_ConstructTransactionD1B8ue170006Ev, symObjAddr: 0x17F8, symBinAddr: 0x10000365C, symSize: 0x2C }
  - { offsetInCU: 0xEA43, offset: 0xEA43, size: 0x8, addend: 0x0, symName: __ZNSt3__16vectorIiNS_9allocatorIiEEE21_ConstructTransactionC2B8ue170006ERS3_m, symObjAddr: 0x1824, symBinAddr: 0x100003688, symSize: 0x44 }
  - { offsetInCU: 0xEA8A, offset: 0xEA8A, size: 0x8, addend: 0x0, symName: __ZNSt3__19allocatorIiE9constructB8ue170006IiJRKiEEEvPT_DpOT0_, symObjAddr: 0x1868, symBinAddr: 0x1000036CC, symSize: 0x28 }
  - { offsetInCU: 0xEADF, offset: 0xEADF, size: 0x8, addend: 0x0, symName: __ZNSt3__16vectorIiNS_9allocatorIiEEE21_ConstructTransactionD2B8ue170006Ev, symObjAddr: 0x1890, symBinAddr: 0x1000036F4, symSize: 0x20 }
  - { offsetInCU: 0xEB07, offset: 0xEB07, size: 0x8, addend: 0x0, symName: __ZNKSt3__16vectorIiNS_9allocatorIiEEE11__recommendB8ue170006Em, symObjAddr: 0x18B0, symBinAddr: 0x100003714, symSize: 0xB4 }
  - { offsetInCU: 0xEB5B, offset: 0xEB5B, size: 0x8, addend: 0x0, symName: __ZNSt3__114__split_bufferIiRNS_9allocatorIiEEEC1EmmS3_, symObjAddr: 0x1964, symBinAddr: 0x1000037C8, symSize: 0x44 }
  - { offsetInCU: 0xEBB0, offset: 0xEBB0, size: 0x8, addend: 0x0, symName: __ZNSt3__114__split_bufferIiRNS_9allocatorIiEEED1Ev, symObjAddr: 0x1AB8, symBinAddr: 0x10000391C, symSize: 0x2C }
  - { offsetInCU: 0xEBDA, offset: 0xEBDA, size: 0x8, addend: 0x0, symName: __ZNKSt3__16vectorIiNS_9allocatorIiEEE8max_sizeEv, symObjAddr: 0x1AE4, symBinAddr: 0x100003948, symSize: 0x74 }
  - { offsetInCU: 0xEC01, offset: 0xEC01, size: 0x8, addend: 0x0, symName: __ZNKSt3__16vectorIiNS_9allocatorIiEEE20__throw_length_errorB8ue170006Ev, symObjAddr: 0x1B58, symBinAddr: 0x1000039BC, symSize: 0x1C }
  - { offsetInCU: 0xEC30, offset: 0xEC30, size: 0x8, addend: 0x0, symName: __ZNSt3__116allocator_traitsINS_9allocatorIiEEE8max_sizeB8ue170006IS2_vEEmRKS2_, symObjAddr: 0x1BCC, symBinAddr: 0x100003A30, symSize: 0x24 }
  - { offsetInCU: 0xEC5E, offset: 0xEC5E, size: 0x8, addend: 0x0, symName: __ZNKSt3__16vectorIiNS_9allocatorIiEEE7__allocB8ue170006Ev, symObjAddr: 0x1BF0, symBinAddr: 0x100003A54, symSize: 0x28 }
  - { offsetInCU: 0xEC83, offset: 0xEC83, size: 0x8, addend: 0x0, symName: __ZNSt3__114numeric_limitsIlE3maxB8ue170006Ev, symObjAddr: 0x1C18, symBinAddr: 0x100003A7C, symSize: 0x14 }
  - { offsetInCU: 0xECAB, offset: 0xECAB, size: 0x8, addend: 0x0, symName: __ZNKSt3__16__lessIvvEclB8ue170006ImmEEbRKT_RKT0_, symObjAddr: 0x1C80, symBinAddr: 0x100003AE4, symSize: 0x34 }
  - { offsetInCU: 0xECFE, offset: 0xECFE, size: 0x8, addend: 0x0, symName: __ZNKSt3__19allocatorIiE8max_sizeB8ue170006Ev, symObjAddr: 0x1CB4, symBinAddr: 0x100003B18, symSize: 0x14 }
  - { offsetInCU: 0xED23, offset: 0xED23, size: 0x8, addend: 0x0, symName: __ZNKSt3__117__compressed_pairIPiNS_9allocatorIiEEE6secondB8ue170006Ev, symObjAddr: 0x1CC8, symBinAddr: 0x100003B2C, symSize: 0x24 }
  - { offsetInCU: 0xED48, offset: 0xED48, size: 0x8, addend: 0x0, symName: __ZNKSt3__122__compressed_pair_elemINS_9allocatorIiEELi1ELb1EE5__getB8ue170006Ev, symObjAddr: 0x1CEC, symBinAddr: 0x100003B50, symSize: 0x14 }
  - { offsetInCU: 0xED6D, offset: 0xED6D, size: 0x8, addend: 0x0, symName: __ZNSt3__123__libcpp_numeric_limitsIlLb1EE3maxB8ue170006Ev, symObjAddr: 0x1D00, symBinAddr: 0x100003B64, symSize: 0x8 }
  - { offsetInCU: 0xED81, offset: 0xED81, size: 0x8, addend: 0x0, symName: __ZNSt12length_errorC1B8ue170006EPKc, symObjAddr: 0x1D6C, symBinAddr: 0x100003BD0, symSize: 0x34 }
  - { offsetInCU: 0xEDB8, offset: 0xEDB8, size: 0x8, addend: 0x0, symName: __ZNSt12length_errorC2B8ue170006EPKc, symObjAddr: 0x1DA0, symBinAddr: 0x100003C04, symSize: 0x4C }
  - { offsetInCU: 0xEDEF, offset: 0xEDEF, size: 0x8, addend: 0x0, symName: __ZNSt3__114__split_bufferIiRNS_9allocatorIiEEEC2EmmS3_, symObjAddr: 0x1E40, symBinAddr: 0x100003CA4, symSize: 0xD4 }
  - { offsetInCU: 0xEE62, offset: 0xEE62, size: 0x8, addend: 0x0, symName: __ZNSt3__117__compressed_pairIPiRNS_9allocatorIiEEEC1B8ue170006IDnS4_EEOT_OT0_, symObjAddr: 0x1F14, symBinAddr: 0x100003D78, symSize: 0x3C }
  - { offsetInCU: 0xEEB9, offset: 0xEEB9, size: 0x8, addend: 0x0, symName: __ZNSt3__114__split_bufferIiRNS_9allocatorIiEEE7__allocB8ue170006Ev, symObjAddr: 0x1F90, symBinAddr: 0x100003DF4, symSize: 0x28 }
  - { offsetInCU: 0xEEDE, offset: 0xEEDE, size: 0x8, addend: 0x0, symName: __ZNSt3__114__split_bufferIiRNS_9allocatorIiEEE9__end_capB8ue170006Ev, symObjAddr: 0x1FB8, symBinAddr: 0x100003E1C, symSize: 0x28 }
  - { offsetInCU: 0xEF03, offset: 0xEF03, size: 0x8, addend: 0x0, symName: __ZNSt3__117__compressed_pairIPiRNS_9allocatorIiEEEC2B8ue170006IDnS4_EEOT_OT0_, symObjAddr: 0x1FE0, symBinAddr: 0x100003E44, symSize: 0x48 }
  - { offsetInCU: 0xEF5A, offset: 0xEF5A, size: 0x8, addend: 0x0, symName: __ZNSt3__122__compressed_pair_elemIRNS_9allocatorIiEELi1ELb0EEC2B8ue170006IS3_vEEOT_, symObjAddr: 0x2028, symBinAddr: 0x100003E8C, symSize: 0x20 }
  - { offsetInCU: 0xEF9B, offset: 0xEF9B, size: 0x8, addend: 0x0, symName: __ZNSt3__19allocatorIiE8allocateB8ue170006Em, symObjAddr: 0x2048, symBinAddr: 0x100003EAC, symSize: 0x84 }
  - { offsetInCU: 0xEFCE, offset: 0xEFCE, size: 0x8, addend: 0x0, symName: __ZNSt3__117__compressed_pairIPiRNS_9allocatorIiEEE6secondB8ue170006Ev, symObjAddr: 0x20CC, symBinAddr: 0x100003F30, symSize: 0x28 }
  - { offsetInCU: 0xEFF3, offset: 0xEFF3, size: 0x8, addend: 0x0, symName: __ZNSt3__122__compressed_pair_elemIRNS_9allocatorIiEELi1ELb0EE5__getB8ue170006Ev, symObjAddr: 0x20F4, symBinAddr: 0x100003F58, symSize: 0x18 }
  - { offsetInCU: 0xF018, offset: 0xF018, size: 0x8, addend: 0x0, symName: __ZNSt3__117__compressed_pairIPiRNS_9allocatorIiEEE5firstB8ue170006Ev, symObjAddr: 0x210C, symBinAddr: 0x100003F70, symSize: 0x24 }
  - { offsetInCU: 0xF03D, offset: 0xF03D, size: 0x8, addend: 0x0, symName: __ZNSt3__116reverse_iteratorIPiEC1B8ue170006ES1_, symObjAddr: 0x2218, symBinAddr: 0x10000407C, symSize: 0x34 }
  - { offsetInCU: 0xF074, offset: 0xF074, size: 0x8, addend: 0x0, symName: __ZNKSt3__116reverse_iteratorIPiE4baseB8ue170006Ev, symObjAddr: 0x224C, symBinAddr: 0x1000040B0, symSize: 0x18 }
  - { offsetInCU: 0xF099, offset: 0xF099, size: 0x8, addend: 0x0, symName: __ZNKSt3__16vectorIiNS_9allocatorIiEEE14__annotate_newB8ue170006Em, symObjAddr: 0x22A0, symBinAddr: 0x100004104, symSize: 0xAC }
  - { offsetInCU: 0xF0CD, offset: 0xF0CD, size: 0x8, addend: 0x0, symName: __ZNKSt3__116reverse_iteratorIPiEdeB8ue170006Ev, symObjAddr: 0x23E4, symBinAddr: 0x100004248, symSize: 0x28 }
  - { offsetInCU: 0xF100, offset: 0xF100, size: 0x8, addend: 0x0, symName: __ZNSt3__116reverse_iteratorIPiEppB8ue170006Ev, symObjAddr: 0x240C, symBinAddr: 0x100004270, symSize: 0x20 }
  - { offsetInCU: 0xF12A, offset: 0xF12A, size: 0x8, addend: 0x0, symName: __ZNSt3__119__to_address_helperINS_16reverse_iteratorIPiEEvE6__callB8ue170006ERKS3_, symObjAddr: 0x24A4, symBinAddr: 0x100004308, symSize: 0x4C }
  - { offsetInCU: 0xF14D, offset: 0xF14D, size: 0x8, addend: 0x0, symName: __ZNKSt3__116reverse_iteratorIPiEptB8ue170006Ev, symObjAddr: 0x24F0, symBinAddr: 0x100004354, symSize: 0x24 }
  - { offsetInCU: 0xF195, offset: 0xF195, size: 0x8, addend: 0x0, symName: __ZNKSt3__111__move_loopINS_17_ClassicAlgPolicyEEclB8ue170006INS_16reverse_iteratorIPiEES6_S6_EENS_4pairIT_T1_EES8_T0_S9_, symObjAddr: 0x278C, symBinAddr: 0x1000045F0, symSize: 0xA0 }
  - { offsetInCU: 0xF204, offset: 0xF204, size: 0x8, addend: 0x0, symName: __ZNSt3__18_IterOpsINS_17_ClassicAlgPolicyEE11__iter_moveB8ue170006IRNS_16reverse_iteratorIPiEEEENS_9enable_ifIXsr12is_referenceIDTdeclsr3stdE7declvalIRT_EEEEE5valueEDTclsr3stdE4movedeclsr3stdE7declvalISA_EEEEE4typeEOS9_, symObjAddr: 0x298C, symBinAddr: 0x1000047F0, symSize: 0x28 }
  - { offsetInCU: 0xF230, offset: 0xF230, size: 0x8, addend: 0x0, symName: __ZNSt3__18_IterOpsINS_17_ClassicAlgPolicyEE25__validate_iter_referenceB8ue170006IRNS_16reverse_iteratorIPiEEEEvv, symObjAddr: 0x29B4, symBinAddr: 0x100004818, symSize: 0x4 }
  - { offsetInCU: 0xF24E, offset: 0xF24E, size: 0x8, addend: 0x0, symName: __ZNSt3__118__unwrap_iter_implINS_16reverse_iteratorIPiEELb0EE8__unwrapB8ue170006ES3_, symObjAddr: 0x29B8, symBinAddr: 0x10000481C, symSize: 0x24 }
  - { offsetInCU: 0xF271, offset: 0xF271, size: 0x8, addend: 0x0, symName: __ZNSt3__14pairINS_16reverse_iteratorIPiEES3_EC1B8ue170006ERKS3_S6_, symObjAddr: 0x29DC, symBinAddr: 0x100004840, symSize: 0x3C }
  - { offsetInCU: 0xF2B6, offset: 0xF2B6, size: 0x8, addend: 0x0, symName: __ZNSt3__14pairINS_16reverse_iteratorIPiEES3_EC2B8ue170006ERKS3_S6_, symObjAddr: 0x2A18, symBinAddr: 0x10000487C, symSize: 0x34 }
  - { offsetInCU: 0xF2FB, offset: 0xF2FB, size: 0x8, addend: 0x0, symName: __ZNSt3__118__unwrap_iter_implINS_16reverse_iteratorIPiEELb0EE8__rewrapB8ue170006ES3_S3_, symObjAddr: 0x2A4C, symBinAddr: 0x1000048B0, symSize: 0x2C }
  - { offsetInCU: 0xF329, offset: 0xF329, size: 0x8, addend: 0x0, symName: __ZNSt3__116reverse_iteratorIPiEC2B8ue170006ES1_, symObjAddr: 0x2A78, symBinAddr: 0x1000048DC, symSize: 0x28 }
  - { offsetInCU: 0xF360, offset: 0xF360, size: 0x8, addend: 0x0, symName: __ZNSt3__114__split_bufferIiRNS_9allocatorIiEEED2Ev, symObjAddr: 0x2AA0, symBinAddr: 0x100004904, symSize: 0x80 }
  - { offsetInCU: 0xF38B, offset: 0xF38B, size: 0x8, addend: 0x0, symName: __ZNSt3__114__split_bufferIiRNS_9allocatorIiEEE5clearB8ue170006Ev, symObjAddr: 0x2B20, symBinAddr: 0x100004984, symSize: 0x28 }
  - { offsetInCU: 0xF3B0, offset: 0xF3B0, size: 0x8, addend: 0x0, symName: __ZNKSt3__114__split_bufferIiRNS_9allocatorIiEEE8capacityB8ue170006Ev, symObjAddr: 0x2B48, symBinAddr: 0x1000049AC, symSize: 0x40 }
  - { offsetInCU: 0xF3D5, offset: 0xF3D5, size: 0x8, addend: 0x0, symName: __ZNSt3__114__split_bufferIiRNS_9allocatorIiEEE17__destruct_at_endB8ue170006EPi, symObjAddr: 0x2B88, symBinAddr: 0x1000049EC, symSize: 0x2C }
  - { offsetInCU: 0xF407, offset: 0xF407, size: 0x8, addend: 0x0, symName: __ZNSt3__114__split_bufferIiRNS_9allocatorIiEEE17__destruct_at_endB8ue170006EPiNS_17integral_constantIbLb0EEE, symObjAddr: 0x2BB4, symBinAddr: 0x100004A18, symSize: 0x94 }
  - { offsetInCU: 0xF447, offset: 0xF447, size: 0x8, addend: 0x0, symName: __ZNKSt3__114__split_bufferIiRNS_9allocatorIiEEE9__end_capB8ue170006Ev, symObjAddr: 0x2C48, symBinAddr: 0x100004AAC, symSize: 0x28 }
  - { offsetInCU: 0xF46C, offset: 0xF46C, size: 0x8, addend: 0x0, symName: __ZNKSt3__117__compressed_pairIPiRNS_9allocatorIiEEE5firstB8ue170006Ev, symObjAddr: 0x2C70, symBinAddr: 0x100004AD4, symSize: 0x24 }
  - { offsetInCU: 0xF491, offset: 0xF491, size: 0x8, addend: 0x0, symName: __ZNSt3__16vectorIiNS_9allocatorIiEEEC2ERKS3_, symObjAddr: 0x2C94, symBinAddr: 0x100004AF8, symSize: 0x94 }
  - { offsetInCU: 0xF4CB, offset: 0xF4CB, size: 0x8, addend: 0x0, symName: __ZNSt3__116allocator_traitsINS_9allocatorIiEEE37select_on_container_copy_constructionB8ue170006IS2_vvEES2_RKS2_, symObjAddr: 0x2D28, symBinAddr: 0x100004B8C, symSize: 0x10 }
  - { offsetInCU: 0xF4FF, offset: 0xF4FF, size: 0x8, addend: 0x0, symName: __ZNSt3__117__compressed_pairIPiNS_9allocatorIiEEEC1B8ue170006IDnS3_EEOT_OT0_, symObjAddr: 0x2D38, symBinAddr: 0x100004B9C, symSize: 0x3C }
  - { offsetInCU: 0xF556, offset: 0xF556, size: 0x8, addend: 0x0, symName: __ZNSt3__16vectorIiNS_9allocatorIiEEE16__init_with_sizeB8ue170006IPiS5_EEvT_T0_m, symObjAddr: 0x2D74, symBinAddr: 0x100004BD8, symSize: 0xC0 }
  - { offsetInCU: 0xF5C9, offset: 0xF5C9, size: 0x8, addend: 0x0, symName: __ZNSt3__117__compressed_pairIPiNS_9allocatorIiEEEC2B8ue170006IDnS3_EEOT_OT0_, symObjAddr: 0x2E34, symBinAddr: 0x100004C98, symSize: 0x44 }
  - { offsetInCU: 0xF620, offset: 0xF620, size: 0x8, addend: 0x0, symName: __ZNSt3__122__compressed_pair_elemINS_9allocatorIiEELi1ELb1EEC2B8ue170006IS2_vEEOT_, symObjAddr: 0x2E78, symBinAddr: 0x100004CDC, symSize: 0x18 }
  - { offsetInCU: 0xF661, offset: 0xF661, size: 0x8, addend: 0x0, symName: __ZNSt3__16vectorIiNS_9allocatorIiEEE11__vallocateB8ue170006Em, symObjAddr: 0x2ED0, symBinAddr: 0x100004D34, symSize: 0xAC }
  - { offsetInCU: 0xF6A3, offset: 0xF6A3, size: 0x8, addend: 0x0, symName: __ZNSt3__16vectorIiNS_9allocatorIiEEE18__construct_at_endIPiS5_EEvT_T0_m, symObjAddr: 0x2F7C, symBinAddr: 0x100004DE0, symSize: 0x94 }
  - { offsetInCU: 0xF718, offset: 0xF718, size: 0x8, addend: 0x0, symName: __ZNSt3__128__exception_guard_exceptionsINS_6vectorIiNS_9allocatorIiEEE16__destroy_vectorEE10__completeB8ue170006Ev, symObjAddr: 0x3010, symBinAddr: 0x100004E74, symSize: 0x1C }
  - { offsetInCU: 0xF73D, offset: 0xF73D, size: 0x8, addend: 0x0, symName: __ZNSt3__128__exception_guard_exceptionsINS_6vectorIiNS_9allocatorIiEEE16__destroy_vectorEED1B8ue170006Ev, symObjAddr: 0x302C, symBinAddr: 0x100004E90, symSize: 0x2C }
  - { offsetInCU: 0xF766, offset: 0xF766, size: 0x8, addend: 0x0, symName: __ZNSt3__128__exception_guard_exceptionsINS_6vectorIiNS_9allocatorIiEEE16__destroy_vectorEEC1B8ue170006ES5_, symObjAddr: 0x3058, symBinAddr: 0x100004EBC, symSize: 0x34 }
  - { offsetInCU: 0xF79D, offset: 0xF79D, size: 0x8, addend: 0x0, symName: __ZNSt3__128__exception_guard_exceptionsINS_6vectorIiNS_9allocatorIiEEE16__destroy_vectorEEC2B8ue170006ES5_, symObjAddr: 0x308C, symBinAddr: 0x100004EF0, symSize: 0x24 }
  - { offsetInCU: 0xF7ED, offset: 0xF7ED, size: 0x8, addend: 0x0, symName: __ZNSt3__14pairIPiS1_EC1B8ue170006ERKS1_S4_, symObjAddr: 0x3338, symBinAddr: 0x10000519C, symSize: 0x3C }
  - { offsetInCU: 0xF832, offset: 0xF832, size: 0x8, addend: 0x0, symName: __ZNSt3__14pairIPiS1_EC2B8ue170006ERKS1_S4_, symObjAddr: 0x3374, symBinAddr: 0x1000051D8, symSize: 0x34 }
  - { offsetInCU: 0xF877, offset: 0xF877, size: 0x8, addend: 0x0, symName: __ZNSt3__129_AllocatorDestroyRangeReverseINS_9allocatorIiEEPiEC1B8ue170006ERS2_RS3_S6_, symObjAddr: 0x33F4, symBinAddr: 0x100005258, symSize: 0x44 }
  - { offsetInCU: 0xF8CD, offset: 0xF8CD, size: 0x8, addend: 0x0, symName: __ZNSt3__116allocator_traitsINS_9allocatorIiEEE9constructB8ue170006IiJRiEvEEvRS2_PT_DpOT0_, symObjAddr: 0x3438, symBinAddr: 0x10000529C, symSize: 0x34 }
  - { offsetInCU: 0xF924, offset: 0xF924, size: 0x8, addend: 0x0, symName: __ZNSt3__128__exception_guard_exceptionsINS_29_AllocatorDestroyRangeReverseINS_9allocatorIiEEPiEEE10__completeB8ue170006Ev, symObjAddr: 0x346C, symBinAddr: 0x1000052D0, symSize: 0x1C }
  - { offsetInCU: 0xF949, offset: 0xF949, size: 0x8, addend: 0x0, symName: __ZNSt3__128__exception_guard_exceptionsINS_29_AllocatorDestroyRangeReverseINS_9allocatorIiEEPiEEED1B8ue170006Ev, symObjAddr: 0x3488, symBinAddr: 0x1000052EC, symSize: 0x2C }
  - { offsetInCU: 0xF972, offset: 0xF972, size: 0x8, addend: 0x0, symName: __ZNSt3__128__exception_guard_exceptionsINS_29_AllocatorDestroyRangeReverseINS_9allocatorIiEEPiEEEC1B8ue170006ES5_, symObjAddr: 0x34B4, symBinAddr: 0x100005318, symSize: 0x34 }
  - { offsetInCU: 0xF9AA, offset: 0xF9AA, size: 0x8, addend: 0x0, symName: __ZNSt3__128__exception_guard_exceptionsINS_29_AllocatorDestroyRangeReverseINS_9allocatorIiEEPiEEEC2B8ue170006ES5_, symObjAddr: 0x34E8, symBinAddr: 0x10000534C, symSize: 0x30 }
  - { offsetInCU: 0xF9E2, offset: 0xF9E2, size: 0x8, addend: 0x0, symName: __ZNSt3__129_AllocatorDestroyRangeReverseINS_9allocatorIiEEPiEC2B8ue170006ERS2_RS3_S6_, symObjAddr: 0x3518, symBinAddr: 0x10000537C, symSize: 0x38 }
  - { offsetInCU: 0xFA38, offset: 0xFA38, size: 0x8, addend: 0x0, symName: __ZNSt3__19allocatorIiE9constructB8ue170006IiJRiEEEvPT_DpOT0_, symObjAddr: 0x3550, symBinAddr: 0x1000053B4, symSize: 0x28 }
  - { offsetInCU: 0xFA8D, offset: 0xFA8D, size: 0x8, addend: 0x0, symName: __ZNSt3__128__exception_guard_exceptionsINS_29_AllocatorDestroyRangeReverseINS_9allocatorIiEEPiEEED2B8ue170006Ev, symObjAddr: 0x3578, symBinAddr: 0x1000053DC, symSize: 0x48 }
  - { offsetInCU: 0xFAB6, offset: 0xFAB6, size: 0x8, addend: 0x0, symName: __ZNKSt3__129_AllocatorDestroyRangeReverseINS_9allocatorIiEEPiEclB8ue170006Ev, symObjAddr: 0x35C0, symBinAddr: 0x100005424, symSize: 0x68 }
  - { offsetInCU: 0xFADB, offset: 0xFADB, size: 0x8, addend: 0x0, symName: __ZNSt3__118__unwrap_iter_implIPiLb1EE8__unwrapB8ue170006ES1_, symObjAddr: 0x3698, symBinAddr: 0x1000054FC, symSize: 0x24 }
  - { offsetInCU: 0xFAFE, offset: 0xFAFE, size: 0x8, addend: 0x0, symName: __ZNSt3__118__unwrap_iter_implIPiLb1EE8__rewrapB8ue170006ES1_S1_, symObjAddr: 0x36BC, symBinAddr: 0x100005520, symSize: 0x50 }
  - { offsetInCU: 0xFB2F, offset: 0xFB2F, size: 0x8, addend: 0x0, symName: __ZNSt3__128__exception_guard_exceptionsINS_6vectorIiNS_9allocatorIiEEE16__destroy_vectorEED2B8ue170006Ev, symObjAddr: 0x370C, symBinAddr: 0x100005570, symSize: 0x48 }
  - { offsetInCU: 0xFB58, offset: 0xFB58, size: 0x8, addend: 0x0, symName: __ZNSt3__112basic_stringIDsNS_11char_traitsIDsEENS_9allocatorIDsEEE19__copy_assign_allocB8ue170006ERKS5_, symObjAddr: 0x3754, symBinAddr: 0x1000055B8, symSize: 0x2C }
  - { offsetInCU: 0xFB8B, offset: 0xFB8B, size: 0x8, addend: 0x0, symName: __ZNSt3__112basic_stringIDsNS_11char_traitsIDsEENS_9allocatorIDsEEE17__assign_no_aliasILb1EEERS5_PKDsm, symObjAddr: 0x3780, symBinAddr: 0x1000055E4, symSize: 0xE4 }
  - { offsetInCU: 0xFC25, offset: 0xFC25, size: 0x8, addend: 0x0, symName: __ZNKSt3__112basic_stringIDsNS_11char_traitsIDsEENS_9allocatorIDsEEE4dataB8ue170006Ev, symObjAddr: 0x3864, symBinAddr: 0x1000056C8, symSize: 0x28 }
  - { offsetInCU: 0xFC4A, offset: 0xFC4A, size: 0x8, addend: 0x0, symName: __ZNKSt3__112basic_stringIDsNS_11char_traitsIDsEENS_9allocatorIDsEEE4sizeB8ue170006Ev, symObjAddr: 0x388C, symBinAddr: 0x1000056F0, symSize: 0x54 }
  - { offsetInCU: 0xFC6E, offset: 0xFC6E, size: 0x8, addend: 0x0, symName: __ZNSt3__112basic_stringIDsNS_11char_traitsIDsEENS_9allocatorIDsEEE17__assign_no_aliasILb0EEERS5_PKDsm, symObjAddr: 0x38E0, symBinAddr: 0x100005744, symSize: 0xE4 }
  - { offsetInCU: 0xFD08, offset: 0xFD08, size: 0x8, addend: 0x0, symName: __ZNSt3__112basic_stringIDsNS_11char_traitsIDsEENS_9allocatorIDsEEE19__copy_assign_allocB8ue170006ERKS5_NS_17integral_constantIbLb0EEE, symObjAddr: 0x39C4, symBinAddr: 0x100005828, symSize: 0x14 }
  - { offsetInCU: 0xFD43, offset: 0xFD43, size: 0x8, addend: 0x0, symName: __ZNSt3__112basic_stringIDsNS_11char_traitsIDsEENS_9allocatorIDsEEE19__get_short_pointerB8ue170006Ev, symObjAddr: 0x39D8, symBinAddr: 0x10000583C, symSize: 0x28 }
  - { offsetInCU: 0xFD68, offset: 0xFD68, size: 0x8, addend: 0x0, symName: __ZNSt3__112basic_stringIDsNS_11char_traitsIDsEENS_9allocatorIDsEEE16__set_short_sizeB8ue170006Em, symObjAddr: 0x3A00, symBinAddr: 0x100005864, symSize: 0x78 }
  - { offsetInCU: 0xFD9C, offset: 0xFD9C, size: 0x8, addend: 0x0, symName: __ZNSt3__111char_traitsIDsE4copyB8ue170006EPDsPKDsm, symObjAddr: 0x3A78, symBinAddr: 0x1000058DC, symSize: 0x64 }
  - { offsetInCU: 0xFDDE, offset: 0xFDDE, size: 0x8, addend: 0x0, symName: __ZNSt3__111char_traitsIDsE6assignB8ue170006ERDsRKDs, symObjAddr: 0x3AF0, symBinAddr: 0x100005954, symSize: 0x24 }
  - { offsetInCU: 0xFE11, offset: 0xFE11, size: 0x8, addend: 0x0, symName: __ZNKSt3__112basic_stringIDsNS_11char_traitsIDsEENS_9allocatorIDsEEE16__get_short_sizeB8ue170006Ev, symObjAddr: 0x3B14, symBinAddr: 0x100005978, symSize: 0x34 }
  - { offsetInCU: 0xFE35, offset: 0xFE35, size: 0x8, addend: 0x0, symName: __ZNSt3__112basic_stringIDsNS_11char_traitsIDsEENS_9allocatorIDsEEE21__grow_by_and_replaceEmmmmmmPKDs, symObjAddr: 0x3B48, symBinAddr: 0x1000059AC, symSize: 0x2A4 }
  - { offsetInCU: 0xFF22, offset: 0xFF22, size: 0x8, addend: 0x0, symName: __ZNSt3__114pointer_traitsIPDsE10pointer_toB8ue170006ERDs, symObjAddr: 0x3DEC, symBinAddr: 0x100005C50, symSize: 0x14 }
  - { offsetInCU: 0xFF7C, offset: 0xFF7C, size: 0x8, addend: 0x0, symName: __ZNKSt3__114__copy_trivialclB8ue170006IKDsDsLi0EEENS_4pairIPT_PT0_EES5_S5_S7_, symObjAddr: 0x4020, symBinAddr: 0x100005E84, symSize: 0x48 }
  - { offsetInCU: 0xFFFC, offset: 0xFFFC, size: 0x8, addend: 0x0, symName: __ZNSt3__14pairIPKDsS2_EC1B8ue170006ERKS2_S5_, symObjAddr: 0x419C, symBinAddr: 0x100006000, symSize: 0x3C }
  - { offsetInCU: 0x10041, offset: 0x10041, size: 0x8, addend: 0x0, symName: __ZNSt3__14pairIPKDsS2_EC2B8ue170006ERKS2_S5_, symObjAddr: 0x41D8, symBinAddr: 0x10000603C, symSize: 0x34 }
  - { offsetInCU: 0x10086, offset: 0x10086, size: 0x8, addend: 0x0, symName: __ZNSt3__118__unwrap_iter_implIPKDsLb1EE8__unwrapB8ue170006ES2_, symObjAddr: 0x420C, symBinAddr: 0x100006070, symSize: 0x24 }
  - { offsetInCU: 0x100A9, offset: 0x100A9, size: 0x8, addend: 0x0, symName: __ZNSt3__14pairIPKDsPDsEC1B8ue170006ERKS2_RKS3_, symObjAddr: 0x439C, symBinAddr: 0x100006200, symSize: 0x3C }
  - { offsetInCU: 0x100EE, offset: 0x100EE, size: 0x8, addend: 0x0, symName: __ZNSt3__14pairIPKDsPDsEC2B8ue170006ERKS2_RKS3_, symObjAddr: 0x43D8, symBinAddr: 0x10000623C, symSize: 0x34 }
  - { offsetInCU: 0x10133, offset: 0x10133, size: 0x8, addend: 0x0, symName: __ZNSt3__118__unwrap_iter_implIPDsLb1EE8__unwrapB8ue170006ES1_, symObjAddr: 0x440C, symBinAddr: 0x100006270, symSize: 0x24 }
  - { offsetInCU: 0x10156, offset: 0x10156, size: 0x8, addend: 0x0, symName: __ZNSt3__118__unwrap_iter_implIPKDsLb1EE8__rewrapB8ue170006ES2_S2_, symObjAddr: 0x4480, symBinAddr: 0x1000062E4, symSize: 0x50 }
  - { offsetInCU: 0x10187, offset: 0x10187, size: 0x8, addend: 0x0, symName: __ZNSt3__118__unwrap_iter_implIPDsLb1EE8__rewrapB8ue170006ES1_S1_, symObjAddr: 0x44D0, symBinAddr: 0x100006334, symSize: 0x50 }
  - { offsetInCU: 0x101B8, offset: 0x101B8, size: 0x8, addend: 0x0, symName: __ZNKSt3__112basic_stringIDsNS_11char_traitsIDsEENS_9allocatorIDsEEE8max_sizeB8ue170006Ev, symObjAddr: 0x4520, symBinAddr: 0x100006384, symSize: 0xAC }
  - { offsetInCU: 0x1020A, offset: 0x1020A, size: 0x8, addend: 0x0, symName: __ZNKSt3__112basic_stringIDsNS_11char_traitsIDsEENS_9allocatorIDsEEE20__throw_length_errorB8ue170006Ev, symObjAddr: 0x45CC, symBinAddr: 0x100006430, symSize: 0x1C }
  - { offsetInCU: 0x1022F, offset: 0x1022F, size: 0x8, addend: 0x0, symName: __ZNSt3__112basic_stringIDsNS_11char_traitsIDsEENS_9allocatorIDsEEE13__get_pointerB8ue170006Ev, symObjAddr: 0x45E8, symBinAddr: 0x10000644C, symSize: 0x54 }
  - { offsetInCU: 0x10254, offset: 0x10254, size: 0x8, addend: 0x0, symName: __ZNKSt3__112basic_stringIDsNS_11char_traitsIDsEENS_9allocatorIDsEEE7__allocB8ue170006Ev, symObjAddr: 0x467C, symBinAddr: 0x1000064E0, symSize: 0x24 }
  - { offsetInCU: 0x10279, offset: 0x10279, size: 0x8, addend: 0x0, symName: __ZNSt3__114numeric_limitsImE3maxB8ue170006Ev, symObjAddr: 0x46A0, symBinAddr: 0x100006504, symSize: 0x14 }
  - { offsetInCU: 0x1028D, offset: 0x1028D, size: 0x8, addend: 0x0, symName: __ZNKSt3__117__compressed_pairINS_12basic_stringIDsNS_11char_traitsIDsEENS_9allocatorIDsEEE5__repES5_E6secondB8ue170006Ev, symObjAddr: 0x46B4, symBinAddr: 0x100006518, symSize: 0x24 }
  - { offsetInCU: 0x102B2, offset: 0x102B2, size: 0x8, addend: 0x0, symName: __ZNKSt3__122__compressed_pair_elemINS_9allocatorIDsEELi1ELb1EE5__getB8ue170006Ev, symObjAddr: 0x46D8, symBinAddr: 0x10000653C, symSize: 0x14 }
  - { offsetInCU: 0x102D7, offset: 0x102D7, size: 0x8, addend: 0x0, symName: __ZNSt3__123__libcpp_numeric_limitsImLb1EE3maxB8ue170006Ev, symObjAddr: 0x46EC, symBinAddr: 0x100006550, symSize: 0x8 }
  - { offsetInCU: 0x102EB, offset: 0x102EB, size: 0x8, addend: 0x0, symName: __ZNKSt3__112basic_stringIDsNS_11char_traitsIDsEENS_9allocatorIDsEEE13__get_pointerB8ue170006Ev, symObjAddr: 0x46F4, symBinAddr: 0x100006558, symSize: 0x54 }
  - { offsetInCU: 0x10310, offset: 0x10310, size: 0x8, addend: 0x0, symName: __ZNKSt3__112basic_stringIDsNS_11char_traitsIDsEENS_9allocatorIDsEEE18__get_long_pointerB8ue170006Ev, symObjAddr: 0x4748, symBinAddr: 0x1000065AC, symSize: 0x28 }
  - { offsetInCU: 0x10335, offset: 0x10335, size: 0x8, addend: 0x0, symName: __ZNKSt3__112basic_stringIDsNS_11char_traitsIDsEENS_9allocatorIDsEEE19__get_short_pointerB8ue170006Ev, symObjAddr: 0x4770, symBinAddr: 0x1000065D4, symSize: 0x28 }
  - { offsetInCU: 0x1035A, offset: 0x1035A, size: 0x8, addend: 0x0, symName: __ZNSt3__114pointer_traitsIPKDsE10pointer_toB8ue170006ERS1_, symObjAddr: 0x4798, symBinAddr: 0x1000065FC, symSize: 0x14 }
  - { offsetInCU: 0x1037D, offset: 0x1037D, size: 0x8, addend: 0x0, symName: __ZNKSt3__112basic_stringIDsNS_11char_traitsIDsEENS_9allocatorIDsEEE15__get_long_sizeB8ue170006Ev, symObjAddr: 0x47AC, symBinAddr: 0x100006610, symSize: 0x28 }
  - { offsetInCU: 0x103A2, offset: 0x103A2, size: 0x8, addend: 0x0, symName: __ZNSt3__112basic_stringIDsNS_11char_traitsIDsEENS_9allocatorIDsEEEC2B8ue170006ILi0EEEPKDs, symObjAddr: 0x47D4, symBinAddr: 0x100006638, symSize: 0x58 }
  - { offsetInCU: 0x103DF, offset: 0x103DF, size: 0x8, addend: 0x0, symName: __ZNSt3__112basic_stringIDsNS_11char_traitsIDsEENS_9allocatorIDsEEE6__initEPKDsm, symObjAddr: 0x482C, symBinAddr: 0x100006690, symSize: 0x14C }
  - { offsetInCU: 0x10451, offset: 0x10451, size: 0x8, addend: 0x0, symName: __ZNSt3__111char_traitsIDsE6lengthB8ue170006EPKDs, symObjAddr: 0x4978, symBinAddr: 0x1000067DC, symSize: 0x60 }
  - { offsetInCU: 0x10486, offset: 0x10486, size: 0x8, addend: 0x0, symName: __ZNSt3__112basic_stringIDsNS_11char_traitsIDsEENS_9allocatorIDsEEE13__fits_in_ssoB8ue170006Em, symObjAddr: 0x49D8, symBinAddr: 0x10000683C, symSize: 0x4C }
  - { offsetInCU: 0x104AA, offset: 0x104AA, size: 0x8, addend: 0x0, symName: __ZNSt3__111char_traitsIDsE2eqB8ue170006EDsDs, symObjAddr: 0x4A24, symBinAddr: 0x100006888, symSize: 0x28 }
  - { offsetInCU: 0x104DD, offset: 0x104DD, size: 0x8, addend: 0x0, symName: __ZNSt3__111char_traitsIcE6lengthB8ue170006EPKc, symObjAddr: 0x4C40, symBinAddr: 0x100006AA4, symSize: 0x48 }
  - { offsetInCU: 0x1051E, offset: 0x1051E, size: 0x8, addend: 0x0, symName: __ZNKSt3__113basic_ostreamIcNS_11char_traitsIcEEE6sentrycvbB8ue170006Ev, symObjAddr: 0x4C88, symBinAddr: 0x100006AEC, symSize: 0x1C }
  - { offsetInCU: 0x10543, offset: 0x10543, size: 0x8, addend: 0x0, symName: __ZNSt3__119ostreambuf_iteratorIcNS_11char_traitsIcEEEC1B8ue170006ERNS_13basic_ostreamIcS2_EE, symObjAddr: 0x4EEC, symBinAddr: 0x100006D50, symSize: 0x34 }
  - { offsetInCU: 0x1057A, offset: 0x1057A, size: 0x8, addend: 0x0, symName: __ZNKSt3__18ios_base5flagsB8ue170006Ev, symObjAddr: 0x4F20, symBinAddr: 0x100006D84, symSize: 0x18 }
  - { offsetInCU: 0x105A0, offset: 0x105A0, size: 0x8, addend: 0x0, symName: __ZNKSt3__19basic_iosIcNS_11char_traitsIcEEE4fillB8ue170006Ev, symObjAddr: 0x4F38, symBinAddr: 0x100006D9C, symSize: 0x64 }
  - { offsetInCU: 0x105C7, offset: 0x105C7, size: 0x8, addend: 0x0, symName: __ZNKSt3__119ostreambuf_iteratorIcNS_11char_traitsIcEEE6failedB8ue170006Ev, symObjAddr: 0x4F9C, symBinAddr: 0x100006E00, symSize: 0x24 }
  - { offsetInCU: 0x105EC, offset: 0x105EC, size: 0x8, addend: 0x0, symName: __ZNSt3__19basic_iosIcNS_11char_traitsIcEEE8setstateB8ue170006Ej, symObjAddr: 0x4FC0, symBinAddr: 0x100006E24, symSize: 0x2C }
  - { offsetInCU: 0x10620, offset: 0x10620, size: 0x8, addend: 0x0, symName: __ZNKSt3__18ios_base5widthB8ue170006Ev, symObjAddr: 0x4FEC, symBinAddr: 0x100006E50, symSize: 0x18 }
  - { offsetInCU: 0x10647, offset: 0x10647, size: 0x8, addend: 0x0, symName: __ZNSt3__115basic_streambufIcNS_11char_traitsIcEEE5sputnB8ue170006EPKcl, symObjAddr: 0x5004, symBinAddr: 0x100006E68, symSize: 0x3C }
  - { offsetInCU: 0x10688, offset: 0x10688, size: 0x8, addend: 0x0, symName: __ZNSt3__112basic_stringIcNS_11char_traitsIcEENS_9allocatorIcEEEC1B8ue170006Emc, symObjAddr: 0x5040, symBinAddr: 0x100006EA4, symSize: 0x3C }
  - { offsetInCU: 0x106CF, offset: 0x106CF, size: 0x8, addend: 0x0, symName: __ZNKSt3__112basic_stringIcNS_11char_traitsIcEENS_9allocatorIcEEE4dataB8ue170006Ev, symObjAddr: 0x507C, symBinAddr: 0x100006EE0, symSize: 0x28 }
  - { offsetInCU: 0x106F4, offset: 0x106F4, size: 0x8, addend: 0x0, symName: __ZNSt3__18ios_base5widthB8ue170006El, symObjAddr: 0x50A4, symBinAddr: 0x100006F08, symSize: 0x2C }
  - { offsetInCU: 0x10739, offset: 0x10739, size: 0x8, addend: 0x0, symName: __ZNSt3__112basic_stringIcNS_11char_traitsIcEENS_9allocatorIcEEEC2B8ue170006Emc, symObjAddr: 0x50D0, symBinAddr: 0x100006F34, symSize: 0x4C }
  - { offsetInCU: 0x10780, offset: 0x10780, size: 0x8, addend: 0x0, symName: __ZNSt3__117__compressed_pairINS_12basic_stringIcNS_11char_traitsIcEENS_9allocatorIcEEE5__repES5_EC1B8ue170006INS_18__default_init_tagESA_EEOT_OT0_, symObjAddr: 0x511C, symBinAddr: 0x100006F80, symSize: 0x3C }
  - { offsetInCU: 0x107D7, offset: 0x107D7, size: 0x8, addend: 0x0, symName: __ZNSt3__117__compressed_pairINS_12basic_stringIcNS_11char_traitsIcEENS_9allocatorIcEEE5__repES5_EC2B8ue170006INS_18__default_init_tagESA_EEOT_OT0_, symObjAddr: 0x5158, symBinAddr: 0x100006FBC, symSize: 0x3C }
  - { offsetInCU: 0x1082E, offset: 0x1082E, size: 0x8, addend: 0x0, symName: __ZNSt3__122__compressed_pair_elemINS_12basic_stringIcNS_11char_traitsIcEENS_9allocatorIcEEE5__repELi0ELb0EEC2B8ue170006ENS_18__default_init_tagE, symObjAddr: 0x5194, symBinAddr: 0x100006FF8, symSize: 0x14 }
  - { offsetInCU: 0x10862, offset: 0x10862, size: 0x8, addend: 0x0, symName: __ZNSt3__122__compressed_pair_elemINS_9allocatorIcEELi1ELb1EEC2B8ue170006ENS_18__default_init_tagE, symObjAddr: 0x51A8, symBinAddr: 0x10000700C, symSize: 0x2C }
  - { offsetInCU: 0x10896, offset: 0x10896, size: 0x8, addend: 0x0, symName: __ZNSt3__19allocatorIcEC2B8ue170006Ev, symObjAddr: 0x51D4, symBinAddr: 0x100007038, symSize: 0x2C }
  - { offsetInCU: 0x108BF, offset: 0x108BF, size: 0x8, addend: 0x0, symName: __ZNSt3__116__non_trivial_ifILb1ENS_9allocatorIcEEEC2B8ue170006Ev, symObjAddr: 0x5200, symBinAddr: 0x100007064, symSize: 0x14 }
  - { offsetInCU: 0x108E8, offset: 0x108E8, size: 0x8, addend: 0x0, symName: __ZNKSt3__112basic_stringIcNS_11char_traitsIcEENS_9allocatorIcEEE13__get_pointerB8ue170006Ev, symObjAddr: 0x5228, symBinAddr: 0x10000708C, symSize: 0x54 }
  - { offsetInCU: 0x1090D, offset: 0x1090D, size: 0x8, addend: 0x0, symName: __ZNKSt3__112basic_stringIcNS_11char_traitsIcEENS_9allocatorIcEEE9__is_longB8ue170006Ev, symObjAddr: 0x527C, symBinAddr: 0x1000070E0, symSize: 0x74 }
  - { offsetInCU: 0x10932, offset: 0x10932, size: 0x8, addend: 0x0, symName: __ZNKSt3__112basic_stringIcNS_11char_traitsIcEENS_9allocatorIcEEE18__get_long_pointerB8ue170006Ev, symObjAddr: 0x52F0, symBinAddr: 0x100007154, symSize: 0x28 }
  - { offsetInCU: 0x10957, offset: 0x10957, size: 0x8, addend: 0x0, symName: __ZNKSt3__112basic_stringIcNS_11char_traitsIcEENS_9allocatorIcEEE19__get_short_pointerB8ue170006Ev, symObjAddr: 0x5318, symBinAddr: 0x10000717C, symSize: 0x28 }
  - { offsetInCU: 0x1097C, offset: 0x1097C, size: 0x8, addend: 0x0, symName: __ZNKSt3__117__compressed_pairINS_12basic_stringIcNS_11char_traitsIcEENS_9allocatorIcEEE5__repES5_E5firstB8ue170006Ev, symObjAddr: 0x5340, symBinAddr: 0x1000071A4, symSize: 0x24 }
  - { offsetInCU: 0x109A1, offset: 0x109A1, size: 0x8, addend: 0x0, symName: __ZNKSt3__122__compressed_pair_elemINS_12basic_stringIcNS_11char_traitsIcEENS_9allocatorIcEEE5__repELi0ELb0EE5__getB8ue170006Ev, symObjAddr: 0x5364, symBinAddr: 0x1000071C8, symSize: 0x14 }
  - { offsetInCU: 0x109C6, offset: 0x109C6, size: 0x8, addend: 0x0, symName: __ZNSt3__114pointer_traitsIPKcE10pointer_toB8ue170006ERS1_, symObjAddr: 0x5378, symBinAddr: 0x1000071DC, symSize: 0x14 }
  - { offsetInCU: 0x109E9, offset: 0x109E9, size: 0x8, addend: 0x0, symName: __ZNSt3__119ostreambuf_iteratorIcNS_11char_traitsIcEEEC2B8ue170006ERNS_13basic_ostreamIcS2_EE, symObjAddr: 0x538C, symBinAddr: 0x1000071F0, symSize: 0x68 }
  - { offsetInCU: 0x10A1F, offset: 0x10A1F, size: 0x8, addend: 0x0, symName: __ZNKSt3__19basic_iosIcNS_11char_traitsIcEEE5rdbufB8ue170006Ev, symObjAddr: 0x53F4, symBinAddr: 0x100007258, symSize: 0x24 }
  - { offsetInCU: 0x10A46, offset: 0x10A46, size: 0x8, addend: 0x0, symName: __ZNKSt3__18ios_base5rdbufB8ue170006Ev, symObjAddr: 0x5418, symBinAddr: 0x10000727C, symSize: 0x18 }
  - { offsetInCU: 0x10A6B, offset: 0x10A6B, size: 0x8, addend: 0x0, symName: __ZNSt3__111char_traitsIcE11eq_int_typeB8ue170006Eii, symObjAddr: 0x5430, symBinAddr: 0x100007294, symSize: 0x28 }
  - { offsetInCU: 0x10A9E, offset: 0x10A9E, size: 0x8, addend: 0x0, symName: __ZNSt3__111char_traitsIcE3eofB8ue170006Ev, symObjAddr: 0x5458, symBinAddr: 0x1000072BC, symSize: 0x8 }
  - { offsetInCU: 0x10AB1, offset: 0x10AB1, size: 0x8, addend: 0x0, symName: __ZNKSt3__19basic_iosIcNS_11char_traitsIcEEE5widenB8ue170006Ec, symObjAddr: 0x5460, symBinAddr: 0x1000072C4, symSize: 0x8C }
  - { offsetInCU: 0x10B19, offset: 0x10B19, size: 0x8, addend: 0x0, symName: __ZNKSt3__15ctypeIcE5widenB8ue170006Ec, symObjAddr: 0x5518, symBinAddr: 0x10000737C, symSize: 0x38 }
  - { offsetInCU: 0x10B4C, offset: 0x10B4C, size: 0x8, addend: 0x0, symName: __ZNSt3__18ios_base8setstateB8ue170006Ej, symObjAddr: 0x5550, symBinAddr: 0x1000073B4, symSize: 0x34 }
  - { offsetInCU: 0x4748, offset: 0x15441, size: 0x8, addend: 0x0, symName: _main, symObjAddr: 0x0, symBinAddr: 0x10000740C, symSize: 0x104 }
  - { offsetInCU: 0x4785, offset: 0x1547E, size: 0x8, addend: 0x0, symName: __Z4fun2v, symObjAddr: 0x2B8, symBinAddr: 0x100007510, symSize: 0x24 }
...
